; Function Attrs: nounwind uwtable
define range(i32 -9999, 1) i32 @PaUnixMutex_Unlock(ptr noundef %0) local_unnamed_addr #6 {
  %2 = tail call i32 @pthread_mutex_unlock(ptr noundef %0) #16
  store i32 %2, ptr @paUtilErr_, align 4, !tbaa !11
  %.not = icmp eq i32 %2, 0
  br i1 %.not, label %10, label %3, !prof !22

3:                                                ; preds = %1
  %4 = tail call i64 @pthread_self() #17
  %5 = load i64, ptr @paUnixMainThread, align 8, !tbaa !17
  %.not3 = icmp eq i64 %4, %5
  br i1 %.not3, label %6, label %9

6:                                                ; preds = %3
  %7 = sext i32 %2 to i64
  %8 = tail call ptr @strerror(i32 noundef %2) #16
  tail call void @PaUtil_SetLastHostErrorInfo(i32 noundef 8, i64 noundef %7, ptr noundef %8) #16
  br label %9

9:                                                ; preds = %6, %3
  tail call void (ptr, ...) @PaUtil_DebugPrint(ptr noundef nonnull @.str.15) #16
  br label %10

10:                                               ; preds = %1, %9
  %.0 = phi i32 [ -9999, %9 ], [ 0, %1 ]
  ret i32 %.0
}